
;CodeVisionAVR C Compiler V3.12 Advanced
;(C) Copyright 1998-2014 Pavel Haiduc, HP InfoTech s.r.l.
;http://www.hpinfotech.com

;Build configuration    : Release
;Chip type              : ATmega32
;Program type           : Application
;Clock frequency        : 8.000000 MHz
;Memory model           : Small
;Optimize for           : Size
;(s)printf features     : int, width
;(s)scanf features      : int, width
;External RAM size      : 0
;Data Stack size        : 512 byte(s)
;Heap size              : 0 byte(s)
;Promote 'char' to 'int': Yes
;'char' is unsigned     : Yes
;8 bit enums            : Yes
;Global 'const' stored in FLASH: No
;Enhanced function parameter passing: Yes
;Enhanced core instructions: On
;Automatic register allocation for global variables: On
;Smart register allocation: On

	#define _MODEL_SMALL_

	#pragma AVRPART ADMIN PART_NAME ATmega32
	#pragma AVRPART MEMORY PROG_FLASH 32768
	#pragma AVRPART MEMORY EEPROM 1024
	#pragma AVRPART MEMORY INT_SRAM SIZE 2048
	#pragma AVRPART MEMORY INT_SRAM START_ADDR 0x60

	#define CALL_SUPPORTED 1

	.LISTMAC
	.EQU UDRE=0x5
	.EQU RXC=0x7
	.EQU USR=0xB
	.EQU UDR=0xC
	.EQU SPSR=0xE
	.EQU SPDR=0xF
	.EQU EERE=0x0
	.EQU EEWE=0x1
	.EQU EEMWE=0x2
	.EQU EECR=0x1C
	.EQU EEDR=0x1D
	.EQU EEARL=0x1E
	.EQU EEARH=0x1F
	.EQU WDTCR=0x21
	.EQU MCUCR=0x35
	.EQU GICR=0x3B
	.EQU SPL=0x3D
	.EQU SPH=0x3E
	.EQU SREG=0x3F

	.DEF R0X0=R0
	.DEF R0X1=R1
	.DEF R0X2=R2
	.DEF R0X3=R3
	.DEF R0X4=R4
	.DEF R0X5=R5
	.DEF R0X6=R6
	.DEF R0X7=R7
	.DEF R0X8=R8
	.DEF R0X9=R9
	.DEF R0XA=R10
	.DEF R0XB=R11
	.DEF R0XC=R12
	.DEF R0XD=R13
	.DEF R0XE=R14
	.DEF R0XF=R15
	.DEF R0X10=R16
	.DEF R0X11=R17
	.DEF R0X12=R18
	.DEF R0X13=R19
	.DEF R0X14=R20
	.DEF R0X15=R21
	.DEF R0X16=R22
	.DEF R0X17=R23
	.DEF R0X18=R24
	.DEF R0X19=R25
	.DEF R0X1A=R26
	.DEF R0X1B=R27
	.DEF R0X1C=R28
	.DEF R0X1D=R29
	.DEF R0X1E=R30
	.DEF R0X1F=R31

	.EQU __SRAM_START=0x0060
	.EQU __SRAM_END=0x085F
	.EQU __DSTACK_SIZE=0x0200
	.EQU __HEAP_SIZE=0x0000
	.EQU __CLEAR_SRAM_SIZE=__SRAM_END-__SRAM_START+1

	.MACRO __CPD1N
	CPI  R30,LOW(@0)
	LDI  R26,HIGH(@0)
	CPC  R31,R26
	LDI  R26,BYTE3(@0)
	CPC  R22,R26
	LDI  R26,BYTE4(@0)
	CPC  R23,R26
	.ENDM

	.MACRO __CPD2N
	CPI  R26,LOW(@0)
	LDI  R30,HIGH(@0)
	CPC  R27,R30
	LDI  R30,BYTE3(@0)
	CPC  R24,R30
	LDI  R30,BYTE4(@0)
	CPC  R25,R30
	.ENDM

	.MACRO __CPWRR
	CP   R@0,R@2
	CPC  R@1,R@3
	.ENDM

	.MACRO __CPWRN
	CPI  R@0,LOW(@2)
	LDI  R30,HIGH(@2)
	CPC  R@1,R30
	.ENDM

	.MACRO __ADDB1MN
	SUBI R30,LOW(-@0-(@1))
	.ENDM

	.MACRO __ADDB2MN
	SUBI R26,LOW(-@0-(@1))
	.ENDM

	.MACRO __ADDW1MN
	SUBI R30,LOW(-@0-(@1))
	SBCI R31,HIGH(-@0-(@1))
	.ENDM

	.MACRO __ADDW2MN
	SUBI R26,LOW(-@0-(@1))
	SBCI R27,HIGH(-@0-(@1))
	.ENDM

	.MACRO __ADDW1FN
	SUBI R30,LOW(-2*@0-(@1))
	SBCI R31,HIGH(-2*@0-(@1))
	.ENDM

	.MACRO __ADDD1FN
	SUBI R30,LOW(-2*@0-(@1))
	SBCI R31,HIGH(-2*@0-(@1))
	SBCI R22,BYTE3(-2*@0-(@1))
	.ENDM

	.MACRO __ADDD1N
	SUBI R30,LOW(-@0)
	SBCI R31,HIGH(-@0)
	SBCI R22,BYTE3(-@0)
	SBCI R23,BYTE4(-@0)
	.ENDM

	.MACRO __ADDD2N
	SUBI R26,LOW(-@0)
	SBCI R27,HIGH(-@0)
	SBCI R24,BYTE3(-@0)
	SBCI R25,BYTE4(-@0)
	.ENDM

	.MACRO __SUBD1N
	SUBI R30,LOW(@0)
	SBCI R31,HIGH(@0)
	SBCI R22,BYTE3(@0)
	SBCI R23,BYTE4(@0)
	.ENDM

	.MACRO __SUBD2N
	SUBI R26,LOW(@0)
	SBCI R27,HIGH(@0)
	SBCI R24,BYTE3(@0)
	SBCI R25,BYTE4(@0)
	.ENDM

	.MACRO __ANDBMNN
	LDS  R30,@0+(@1)
	ANDI R30,LOW(@2)
	STS  @0+(@1),R30
	.ENDM

	.MACRO __ANDWMNN
	LDS  R30,@0+(@1)
	ANDI R30,LOW(@2)
	STS  @0+(@1),R30
	LDS  R30,@0+(@1)+1
	ANDI R30,HIGH(@2)
	STS  @0+(@1)+1,R30
	.ENDM

	.MACRO __ANDD1N
	ANDI R30,LOW(@0)
	ANDI R31,HIGH(@0)
	ANDI R22,BYTE3(@0)
	ANDI R23,BYTE4(@0)
	.ENDM

	.MACRO __ANDD2N
	ANDI R26,LOW(@0)
	ANDI R27,HIGH(@0)
	ANDI R24,BYTE3(@0)
	ANDI R25,BYTE4(@0)
	.ENDM

	.MACRO __ORBMNN
	LDS  R30,@0+(@1)
	ORI  R30,LOW(@2)
	STS  @0+(@1),R30
	.ENDM

	.MACRO __ORWMNN
	LDS  R30,@0+(@1)
	ORI  R30,LOW(@2)
	STS  @0+(@1),R30
	LDS  R30,@0+(@1)+1
	ORI  R30,HIGH(@2)
	STS  @0+(@1)+1,R30
	.ENDM

	.MACRO __ORD1N
	ORI  R30,LOW(@0)
	ORI  R31,HIGH(@0)
	ORI  R22,BYTE3(@0)
	ORI  R23,BYTE4(@0)
	.ENDM

	.MACRO __ORD2N
	ORI  R26,LOW(@0)
	ORI  R27,HIGH(@0)
	ORI  R24,BYTE3(@0)
	ORI  R25,BYTE4(@0)
	.ENDM

	.MACRO __DELAY_USB
	LDI  R24,LOW(@0)
__DELAY_USB_LOOP:
	DEC  R24
	BRNE __DELAY_USB_LOOP
	.ENDM

	.MACRO __DELAY_USW
	LDI  R24,LOW(@0)
	LDI  R25,HIGH(@0)
__DELAY_USW_LOOP:
	SBIW R24,1
	BRNE __DELAY_USW_LOOP
	.ENDM

	.MACRO __GETD1S
	LDD  R30,Y+@0
	LDD  R31,Y+@0+1
	LDD  R22,Y+@0+2
	LDD  R23,Y+@0+3
	.ENDM

	.MACRO __GETD2S
	LDD  R26,Y+@0
	LDD  R27,Y+@0+1
	LDD  R24,Y+@0+2
	LDD  R25,Y+@0+3
	.ENDM

	.MACRO __PUTD1S
	STD  Y+@0,R30
	STD  Y+@0+1,R31
	STD  Y+@0+2,R22
	STD  Y+@0+3,R23
	.ENDM

	.MACRO __PUTD2S
	STD  Y+@0,R26
	STD  Y+@0+1,R27
	STD  Y+@0+2,R24
	STD  Y+@0+3,R25
	.ENDM

	.MACRO __PUTDZ2
	STD  Z+@0,R26
	STD  Z+@0+1,R27
	STD  Z+@0+2,R24
	STD  Z+@0+3,R25
	.ENDM

	.MACRO __CLRD1S
	STD  Y+@0,R30
	STD  Y+@0+1,R30
	STD  Y+@0+2,R30
	STD  Y+@0+3,R30
	.ENDM

	.MACRO __POINTB1MN
	LDI  R30,LOW(@0+(@1))
	.ENDM

	.MACRO __POINTW1MN
	LDI  R30,LOW(@0+(@1))
	LDI  R31,HIGH(@0+(@1))
	.ENDM

	.MACRO __POINTD1M
	LDI  R30,LOW(@0)
	LDI  R31,HIGH(@0)
	LDI  R22,BYTE3(@0)
	LDI  R23,BYTE4(@0)
	.ENDM

	.MACRO __POINTW1FN
	LDI  R30,LOW(2*@0+(@1))
	LDI  R31,HIGH(2*@0+(@1))
	.ENDM

	.MACRO __POINTD1FN
	LDI  R30,LOW(2*@0+(@1))
	LDI  R31,HIGH(2*@0+(@1))
	LDI  R22,BYTE3(2*@0+(@1))
	LDI  R23,BYTE4(2*@0+(@1))
	.ENDM

	.MACRO __POINTB2MN
	LDI  R26,LOW(@0+(@1))
	.ENDM

	.MACRO __POINTW2MN
	LDI  R26,LOW(@0+(@1))
	LDI  R27,HIGH(@0+(@1))
	.ENDM

	.MACRO __POINTW2FN
	LDI  R26,LOW(2*@0+(@1))
	LDI  R27,HIGH(2*@0+(@1))
	.ENDM

	.MACRO __POINTD2FN
	LDI  R26,LOW(2*@0+(@1))
	LDI  R27,HIGH(2*@0+(@1))
	LDI  R24,BYTE3(2*@0+(@1))
	LDI  R25,BYTE4(2*@0+(@1))
	.ENDM

	.MACRO __POINTBRM
	LDI  R@0,LOW(@1)
	.ENDM

	.MACRO __POINTWRM
	LDI  R@0,LOW(@2)
	LDI  R@1,HIGH(@2)
	.ENDM

	.MACRO __POINTBRMN
	LDI  R@0,LOW(@1+(@2))
	.ENDM

	.MACRO __POINTWRMN
	LDI  R@0,LOW(@2+(@3))
	LDI  R@1,HIGH(@2+(@3))
	.ENDM

	.MACRO __POINTWRFN
	LDI  R@0,LOW(@2*2+(@3))
	LDI  R@1,HIGH(@2*2+(@3))
	.ENDM

	.MACRO __GETD1N
	LDI  R30,LOW(@0)
	LDI  R31,HIGH(@0)
	LDI  R22,BYTE3(@0)
	LDI  R23,BYTE4(@0)
	.ENDM

	.MACRO __GETD2N
	LDI  R26,LOW(@0)
	LDI  R27,HIGH(@0)
	LDI  R24,BYTE3(@0)
	LDI  R25,BYTE4(@0)
	.ENDM

	.MACRO __GETB1MN
	LDS  R30,@0+(@1)
	.ENDM

	.MACRO __GETB1HMN
	LDS  R31,@0+(@1)
	.ENDM

	.MACRO __GETW1MN
	LDS  R30,@0+(@1)
	LDS  R31,@0+(@1)+1
	.ENDM

	.MACRO __GETD1MN
	LDS  R30,@0+(@1)
	LDS  R31,@0+(@1)+1
	LDS  R22,@0+(@1)+2
	LDS  R23,@0+(@1)+3
	.ENDM

	.MACRO __GETBRMN
	LDS  R@0,@1+(@2)
	.ENDM

	.MACRO __GETWRMN
	LDS  R@0,@2+(@3)
	LDS  R@1,@2+(@3)+1
	.ENDM

	.MACRO __GETWRZ
	LDD  R@0,Z+@2
	LDD  R@1,Z+@2+1
	.ENDM

	.MACRO __GETD2Z
	LDD  R26,Z+@0
	LDD  R27,Z+@0+1
	LDD  R24,Z+@0+2
	LDD  R25,Z+@0+3
	.ENDM

	.MACRO __GETB2MN
	LDS  R26,@0+(@1)
	.ENDM

	.MACRO __GETW2MN
	LDS  R26,@0+(@1)
	LDS  R27,@0+(@1)+1
	.ENDM

	.MACRO __GETD2MN
	LDS  R26,@0+(@1)
	LDS  R27,@0+(@1)+1
	LDS  R24,@0+(@1)+2
	LDS  R25,@0+(@1)+3
	.ENDM

	.MACRO __PUTB1MN
	STS  @0+(@1),R30
	.ENDM

	.MACRO __PUTW1MN
	STS  @0+(@1),R30
	STS  @0+(@1)+1,R31
	.ENDM

	.MACRO __PUTD1MN
	STS  @0+(@1),R30
	STS  @0+(@1)+1,R31
	STS  @0+(@1)+2,R22
	STS  @0+(@1)+3,R23
	.ENDM

	.MACRO __PUTB1EN
	LDI  R26,LOW(@0+(@1))
	LDI  R27,HIGH(@0+(@1))
	CALL __EEPROMWRB
	.ENDM

	.MACRO __PUTW1EN
	LDI  R26,LOW(@0+(@1))
	LDI  R27,HIGH(@0+(@1))
	CALL __EEPROMWRW
	.ENDM

	.MACRO __PUTD1EN
	LDI  R26,LOW(@0+(@1))
	LDI  R27,HIGH(@0+(@1))
	CALL __EEPROMWRD
	.ENDM

	.MACRO __PUTBR0MN
	STS  @0+(@1),R0
	.ENDM

	.MACRO __PUTBMRN
	STS  @0+(@1),R@2
	.ENDM

	.MACRO __PUTWMRN
	STS  @0+(@1),R@2
	STS  @0+(@1)+1,R@3
	.ENDM

	.MACRO __PUTBZR
	STD  Z+@1,R@0
	.ENDM

	.MACRO __PUTWZR
	STD  Z+@2,R@0
	STD  Z+@2+1,R@1
	.ENDM

	.MACRO __GETW1R
	MOV  R30,R@0
	MOV  R31,R@1
	.ENDM

	.MACRO __GETW2R
	MOV  R26,R@0
	MOV  R27,R@1
	.ENDM

	.MACRO __GETWRN
	LDI  R@0,LOW(@2)
	LDI  R@1,HIGH(@2)
	.ENDM

	.MACRO __PUTW1R
	MOV  R@0,R30
	MOV  R@1,R31
	.ENDM

	.MACRO __PUTW2R
	MOV  R@0,R26
	MOV  R@1,R27
	.ENDM

	.MACRO __ADDWRN
	SUBI R@0,LOW(-@2)
	SBCI R@1,HIGH(-@2)
	.ENDM

	.MACRO __ADDWRR
	ADD  R@0,R@2
	ADC  R@1,R@3
	.ENDM

	.MACRO __SUBWRN
	SUBI R@0,LOW(@2)
	SBCI R@1,HIGH(@2)
	.ENDM

	.MACRO __SUBWRR
	SUB  R@0,R@2
	SBC  R@1,R@3
	.ENDM

	.MACRO __ANDWRN
	ANDI R@0,LOW(@2)
	ANDI R@1,HIGH(@2)
	.ENDM

	.MACRO __ANDWRR
	AND  R@0,R@2
	AND  R@1,R@3
	.ENDM

	.MACRO __ORWRN
	ORI  R@0,LOW(@2)
	ORI  R@1,HIGH(@2)
	.ENDM

	.MACRO __ORWRR
	OR   R@0,R@2
	OR   R@1,R@3
	.ENDM

	.MACRO __EORWRR
	EOR  R@0,R@2
	EOR  R@1,R@3
	.ENDM

	.MACRO __GETWRS
	LDD  R@0,Y+@2
	LDD  R@1,Y+@2+1
	.ENDM

	.MACRO __PUTBSR
	STD  Y+@1,R@0
	.ENDM

	.MACRO __PUTWSR
	STD  Y+@2,R@0
	STD  Y+@2+1,R@1
	.ENDM

	.MACRO __MOVEWRR
	MOV  R@0,R@2
	MOV  R@1,R@3
	.ENDM

	.MACRO __INWR
	IN   R@0,@2
	IN   R@1,@2+1
	.ENDM

	.MACRO __OUTWR
	OUT  @2+1,R@1
	OUT  @2,R@0
	.ENDM

	.MACRO __CALL1MN
	LDS  R30,@0+(@1)
	LDS  R31,@0+(@1)+1
	ICALL
	.ENDM

	.MACRO __CALL1FN
	LDI  R30,LOW(2*@0+(@1))
	LDI  R31,HIGH(2*@0+(@1))
	CALL __GETW1PF
	ICALL
	.ENDM

	.MACRO __CALL2EN
	PUSH R26
	PUSH R27
	LDI  R26,LOW(@0+(@1))
	LDI  R27,HIGH(@0+(@1))
	CALL __EEPROMRDW
	POP  R27
	POP  R26
	ICALL
	.ENDM

	.MACRO __CALL2EX
	SUBI R26,LOW(-@0)
	SBCI R27,HIGH(-@0)
	CALL __EEPROMRDD
	ICALL
	.ENDM

	.MACRO __GETW1STACK
	IN   R30,SPL
	IN   R31,SPH
	ADIW R30,@0+1
	LD   R0,Z+
	LD   R31,Z
	MOV  R30,R0
	.ENDM

	.MACRO __GETD1STACK
	IN   R30,SPL
	IN   R31,SPH
	ADIW R30,@0+1
	LD   R0,Z+
	LD   R1,Z+
	LD   R22,Z
	MOVW R30,R0
	.ENDM

	.MACRO __NBST
	BST  R@0,@1
	IN   R30,SREG
	LDI  R31,0x40
	EOR  R30,R31
	OUT  SREG,R30
	.ENDM


	.MACRO __PUTB1SN
	LDD  R26,Y+@0
	LDD  R27,Y+@0+1
	SUBI R26,LOW(-@1)
	SBCI R27,HIGH(-@1)
	ST   X,R30
	.ENDM

	.MACRO __PUTW1SN
	LDD  R26,Y+@0
	LDD  R27,Y+@0+1
	SUBI R26,LOW(-@1)
	SBCI R27,HIGH(-@1)
	ST   X+,R30
	ST   X,R31
	.ENDM

	.MACRO __PUTD1SN
	LDD  R26,Y+@0
	LDD  R27,Y+@0+1
	SUBI R26,LOW(-@1)
	SBCI R27,HIGH(-@1)
	CALL __PUTDP1
	.ENDM

	.MACRO __PUTB1SNS
	LDD  R26,Y+@0
	LDD  R27,Y+@0+1
	ADIW R26,@1
	ST   X,R30
	.ENDM

	.MACRO __PUTW1SNS
	LDD  R26,Y+@0
	LDD  R27,Y+@0+1
	ADIW R26,@1
	ST   X+,R30
	ST   X,R31
	.ENDM

	.MACRO __PUTD1SNS
	LDD  R26,Y+@0
	LDD  R27,Y+@0+1
	ADIW R26,@1
	CALL __PUTDP1
	.ENDM

	.MACRO __PUTB1PMN
	LDS  R26,@0
	LDS  R27,@0+1
	SUBI R26,LOW(-@1)
	SBCI R27,HIGH(-@1)
	ST   X,R30
	.ENDM

	.MACRO __PUTW1PMN
	LDS  R26,@0
	LDS  R27,@0+1
	SUBI R26,LOW(-@1)
	SBCI R27,HIGH(-@1)
	ST   X+,R30
	ST   X,R31
	.ENDM

	.MACRO __PUTD1PMN
	LDS  R26,@0
	LDS  R27,@0+1
	SUBI R26,LOW(-@1)
	SBCI R27,HIGH(-@1)
	CALL __PUTDP1
	.ENDM

	.MACRO __PUTB1PMNS
	LDS  R26,@0
	LDS  R27,@0+1
	ADIW R26,@1
	ST   X,R30
	.ENDM

	.MACRO __PUTW1PMNS
	LDS  R26,@0
	LDS  R27,@0+1
	ADIW R26,@1
	ST   X+,R30
	ST   X,R31
	.ENDM

	.MACRO __PUTD1PMNS
	LDS  R26,@0
	LDS  R27,@0+1
	ADIW R26,@1
	CALL __PUTDP1
	.ENDM

	.MACRO __PUTB1RN
	MOVW R26,R@0
	SUBI R26,LOW(-@1)
	SBCI R27,HIGH(-@1)
	ST   X,R30
	.ENDM

	.MACRO __PUTW1RN
	MOVW R26,R@0
	SUBI R26,LOW(-@1)
	SBCI R27,HIGH(-@1)
	ST   X+,R30
	ST   X,R31
	.ENDM

	.MACRO __PUTD1RN
	MOVW R26,R@0
	SUBI R26,LOW(-@1)
	SBCI R27,HIGH(-@1)
	CALL __PUTDP1
	.ENDM

	.MACRO __PUTB1RNS
	MOVW R26,R@0
	ADIW R26,@1
	ST   X,R30
	.ENDM

	.MACRO __PUTW1RNS
	MOVW R26,R@0
	ADIW R26,@1
	ST   X+,R30
	ST   X,R31
	.ENDM

	.MACRO __PUTD1RNS
	MOVW R26,R@0
	ADIW R26,@1
	CALL __PUTDP1
	.ENDM

	.MACRO __PUTB1RON
	MOV  R26,R@0
	MOV  R27,R@1
	SUBI R26,LOW(-@2)
	SBCI R27,HIGH(-@2)
	ST   X,R30
	.ENDM

	.MACRO __PUTW1RON
	MOV  R26,R@0
	MOV  R27,R@1
	SUBI R26,LOW(-@2)
	SBCI R27,HIGH(-@2)
	ST   X+,R30
	ST   X,R31
	.ENDM

	.MACRO __PUTD1RON
	MOV  R26,R@0
	MOV  R27,R@1
	SUBI R26,LOW(-@2)
	SBCI R27,HIGH(-@2)
	CALL __PUTDP1
	.ENDM

	.MACRO __PUTB1RONS
	MOV  R26,R@0
	MOV  R27,R@1
	ADIW R26,@2
	ST   X,R30
	.ENDM

	.MACRO __PUTW1RONS
	MOV  R26,R@0
	MOV  R27,R@1
	ADIW R26,@2
	ST   X+,R30
	ST   X,R31
	.ENDM

	.MACRO __PUTD1RONS
	MOV  R26,R@0
	MOV  R27,R@1
	ADIW R26,@2
	CALL __PUTDP1
	.ENDM


	.MACRO __GETB1SX
	MOVW R30,R28
	SUBI R30,LOW(-@0)
	SBCI R31,HIGH(-@0)
	LD   R30,Z
	.ENDM

	.MACRO __GETB1HSX
	MOVW R30,R28
	SUBI R30,LOW(-@0)
	SBCI R31,HIGH(-@0)
	LD   R31,Z
	.ENDM

	.MACRO __GETW1SX
	MOVW R30,R28
	SUBI R30,LOW(-@0)
	SBCI R31,HIGH(-@0)
	LD   R0,Z+
	LD   R31,Z
	MOV  R30,R0
	.ENDM

	.MACRO __GETD1SX
	MOVW R30,R28
	SUBI R30,LOW(-@0)
	SBCI R31,HIGH(-@0)
	LD   R0,Z+
	LD   R1,Z+
	LD   R22,Z+
	LD   R23,Z
	MOVW R30,R0
	.ENDM

	.MACRO __GETB2SX
	MOVW R26,R28
	SUBI R26,LOW(-@0)
	SBCI R27,HIGH(-@0)
	LD   R26,X
	.ENDM

	.MACRO __GETW2SX
	MOVW R26,R28
	SUBI R26,LOW(-@0)
	SBCI R27,HIGH(-@0)
	LD   R0,X+
	LD   R27,X
	MOV  R26,R0
	.ENDM

	.MACRO __GETD2SX
	MOVW R26,R28
	SUBI R26,LOW(-@0)
	SBCI R27,HIGH(-@0)
	LD   R0,X+
	LD   R1,X+
	LD   R24,X+
	LD   R25,X
	MOVW R26,R0
	.ENDM

	.MACRO __GETBRSX
	MOVW R30,R28
	SUBI R30,LOW(-@1)
	SBCI R31,HIGH(-@1)
	LD   R@0,Z
	.ENDM

	.MACRO __GETWRSX
	MOVW R30,R28
	SUBI R30,LOW(-@2)
	SBCI R31,HIGH(-@2)
	LD   R@0,Z+
	LD   R@1,Z
	.ENDM

	.MACRO __GETBRSX2
	MOVW R26,R28
	SUBI R26,LOW(-@1)
	SBCI R27,HIGH(-@1)
	LD   R@0,X
	.ENDM

	.MACRO __GETWRSX2
	MOVW R26,R28
	SUBI R26,LOW(-@2)
	SBCI R27,HIGH(-@2)
	LD   R@0,X+
	LD   R@1,X
	.ENDM

	.MACRO __LSLW8SX
	MOVW R30,R28
	SUBI R30,LOW(-@0)
	SBCI R31,HIGH(-@0)
	LD   R31,Z
	CLR  R30
	.ENDM

	.MACRO __PUTB1SX
	MOVW R26,R28
	SUBI R26,LOW(-@0)
	SBCI R27,HIGH(-@0)
	ST   X,R30
	.ENDM

	.MACRO __PUTW1SX
	MOVW R26,R28
	SUBI R26,LOW(-@0)
	SBCI R27,HIGH(-@0)
	ST   X+,R30
	ST   X,R31
	.ENDM

	.MACRO __PUTD1SX
	MOVW R26,R28
	SUBI R26,LOW(-@0)
	SBCI R27,HIGH(-@0)
	ST   X+,R30
	ST   X+,R31
	ST   X+,R22
	ST   X,R23
	.ENDM

	.MACRO __CLRW1SX
	MOVW R26,R28
	SUBI R26,LOW(-@0)
	SBCI R27,HIGH(-@0)
	ST   X+,R30
	ST   X,R30
	.ENDM

	.MACRO __CLRD1SX
	MOVW R26,R28
	SUBI R26,LOW(-@0)
	SBCI R27,HIGH(-@0)
	ST   X+,R30
	ST   X+,R30
	ST   X+,R30
	ST   X,R30
	.ENDM

	.MACRO __PUTB2SX
	MOVW R30,R28
	SUBI R30,LOW(-@0)
	SBCI R31,HIGH(-@0)
	ST   Z,R26
	.ENDM

	.MACRO __PUTW2SX
	MOVW R30,R28
	SUBI R30,LOW(-@0)
	SBCI R31,HIGH(-@0)
	ST   Z+,R26
	ST   Z,R27
	.ENDM

	.MACRO __PUTD2SX
	MOVW R30,R28
	SUBI R30,LOW(-@0)
	SBCI R31,HIGH(-@0)
	ST   Z+,R26
	ST   Z+,R27
	ST   Z+,R24
	ST   Z,R25
	.ENDM

	.MACRO __PUTBSRX
	MOVW R30,R28
	SUBI R30,LOW(-@1)
	SBCI R31,HIGH(-@1)
	ST   Z,R@0
	.ENDM

	.MACRO __PUTWSRX
	MOVW R30,R28
	SUBI R30,LOW(-@2)
	SBCI R31,HIGH(-@2)
	ST   Z+,R@0
	ST   Z,R@1
	.ENDM

	.MACRO __PUTB1SNX
	MOVW R26,R28
	SUBI R26,LOW(-@0)
	SBCI R27,HIGH(-@0)
	LD   R0,X+
	LD   R27,X
	MOV  R26,R0
	SUBI R26,LOW(-@1)
	SBCI R27,HIGH(-@1)
	ST   X,R30
	.ENDM

	.MACRO __PUTW1SNX
	MOVW R26,R28
	SUBI R26,LOW(-@0)
	SBCI R27,HIGH(-@0)
	LD   R0,X+
	LD   R27,X
	MOV  R26,R0
	SUBI R26,LOW(-@1)
	SBCI R27,HIGH(-@1)
	ST   X+,R30
	ST   X,R31
	.ENDM

	.MACRO __PUTD1SNX
	MOVW R26,R28
	SUBI R26,LOW(-@0)
	SBCI R27,HIGH(-@0)
	LD   R0,X+
	LD   R27,X
	MOV  R26,R0
	SUBI R26,LOW(-@1)
	SBCI R27,HIGH(-@1)
	ST   X+,R30
	ST   X+,R31
	ST   X+,R22
	ST   X,R23
	.ENDM

	.MACRO __MULBRR
	MULS R@0,R@1
	MOVW R30,R0
	.ENDM

	.MACRO __MULBRRU
	MUL  R@0,R@1
	MOVW R30,R0
	.ENDM

	.MACRO __MULBRR0
	MULS R@0,R@1
	.ENDM

	.MACRO __MULBRRU0
	MUL  R@0,R@1
	.ENDM

	.MACRO __MULBNWRU
	LDI  R26,@2
	MUL  R26,R@0
	MOVW R30,R0
	MUL  R26,R@1
	ADD  R31,R0
	.ENDM

;NAME DEFINITIONS FOR GLOBAL VARIABLES ALLOCATED TO REGISTERS
	.DEF _counter=R4
	.DEF _counter_msb=R5
	.DEF _opcheck=R7
	.DEF __lcd_x=R6
	.DEF __lcd_y=R9
	.DEF __lcd_maxx=R8

	.CSEG
	.ORG 0x00

;START OF CODE MARKER
__START_OF_CODE:

;INTERRUPT VECTORS
	JMP  __RESET
	JMP  0x00
	JMP  0x00
	JMP  0x00
	JMP  0x00
	JMP  0x00
	JMP  0x00
	JMP  0x00
	JMP  0x00
	JMP  0x00
	JMP  0x00
	JMP  0x00
	JMP  0x00
	JMP  0x00
	JMP  0x00
	JMP  0x00
	JMP  0x00
	JMP  0x00
	JMP  0x00
	JMP  0x00
	JMP  0x00

_tbl10_G102:
	.DB  0x10,0x27,0xE8,0x3,0x64,0x0,0xA,0x0
	.DB  0x1,0x0
_tbl16_G102:
	.DB  0x0,0x10,0x0,0x1,0x10,0x0,0x1,0x0

;GLOBAL REGISTER VARIABLES INITIALIZATION
__REG_VARS:
	.DB  0x0,0x0,0x0,0x1

_0x0:
	.DB  0x25,0x64,0x0
_0x2000003:
	.DB  0x80,0xC0
_0x2020060:
	.DB  0x1
_0x2020000:
	.DB  0x2D,0x4E,0x41,0x4E,0x0,0x49,0x4E,0x46
	.DB  0x0

__GLOBAL_INI_TBL:
	.DW  0x04
	.DW  0x04
	.DW  __REG_VARS*2

	.DW  0x02
	.DW  __base_y_G100
	.DW  _0x2000003*2

	.DW  0x01
	.DW  __seed_G101
	.DW  _0x2020060*2

_0xFFFFFFFF:
	.DW  0

#define __GLOBAL_INI_TBL_PRESENT 1

__RESET:
	CLI
	CLR  R30
	OUT  EECR,R30

;INTERRUPT VECTORS ARE PLACED
;AT THE START OF FLASH
	LDI  R31,1
	OUT  GICR,R31
	OUT  GICR,R30
	OUT  MCUCR,R30

;DISABLE WATCHDOG
	LDI  R31,0x18
	OUT  WDTCR,R31
	OUT  WDTCR,R30

;CLEAR R2-R14
	LDI  R24,(14-2)+1
	LDI  R26,2
	CLR  R27
__CLEAR_REG:
	ST   X+,R30
	DEC  R24
	BRNE __CLEAR_REG

;CLEAR SRAM
	LDI  R24,LOW(__CLEAR_SRAM_SIZE)
	LDI  R25,HIGH(__CLEAR_SRAM_SIZE)
	LDI  R26,__SRAM_START
__CLEAR_SRAM:
	ST   X+,R30
	SBIW R24,1
	BRNE __CLEAR_SRAM

;GLOBAL VARIABLES INITIALIZATION
	LDI  R30,LOW(__GLOBAL_INI_TBL*2)
	LDI  R31,HIGH(__GLOBAL_INI_TBL*2)
__GLOBAL_INI_NEXT:
	LPM  R24,Z+
	LPM  R25,Z+
	SBIW R24,0
	BREQ __GLOBAL_INI_END
	LPM  R26,Z+
	LPM  R27,Z+
	LPM  R0,Z+
	LPM  R1,Z+
	MOVW R22,R30
	MOVW R30,R0
__GLOBAL_INI_LOOP:
	LPM  R0,Z+
	ST   X+,R0
	SBIW R24,1
	BRNE __GLOBAL_INI_LOOP
	MOVW R30,R22
	RJMP __GLOBAL_INI_NEXT
__GLOBAL_INI_END:

;HARDWARE STACK POINTER INITIALIZATION
	LDI  R30,LOW(__SRAM_END-__HEAP_SIZE)
	OUT  SPL,R30
	LDI  R30,HIGH(__SRAM_END-__HEAP_SIZE)
	OUT  SPH,R30

;DATA STACK POINTER INITIALIZATION
	LDI  R28,LOW(__SRAM_START+__DSTACK_SIZE)
	LDI  R29,HIGH(__SRAM_START+__DSTACK_SIZE)

	JMP  _main

	.ESEG
	.ORG 0

	.DSEG
	.ORG 0x260

	.CSEG
;#include <mega32.h>
	#ifndef __SLEEP_DEFINED__
	#define __SLEEP_DEFINED__
	.EQU __se_bit=0x80
	.EQU __sm_mask=0x70
	.EQU __sm_powerdown=0x20
	.EQU __sm_powersave=0x30
	.EQU __sm_standby=0x60
	.EQU __sm_ext_standby=0x70
	.EQU __sm_adc_noise_red=0x10
	.SET power_ctrl_reg=mcucr
	#endif
;#include <alcd.h>
;#include <delay.h>
;#include <stdlib.h>
;#include <stdio.h>
;
;#define KEYPAD_R1 PORTD.0
;#define KEYPAD_R2 PORTD.1
;#define KEYPAD_R3 PORTD.2
;#define KEYPAD_R4 PORTD.3
;#define KEYPAD_C1 PIND.4
;#define KEYPAD_C2 PIND.5
;#define KEYPAD_C3 PIND.6
;#define KEYPAD_C4 PIND.7
;
;#define KEYPAD_NUM0 0
;#define KEYPAD_NUM1 1
;#define KEYPAD_NUM2 2
;#define KEYPAD_NUM3 3
;#define KEYPAD_NUM4 4
;#define KEYPAD_NUM5 5
;#define KEYPAD_NUM6 6
;#define KEYPAD_NUM7 7
;#define KEYPAD_NUM8 8
;#define KEYPAD_NUM9 9
;
;#define DIVIDE      '/'
;#define MULTIPLY    '*'
;#define SUM         '+'
;#define MINUS       '-'
;#define CLR         'c'
;#define EQUAL       '='
;
;
;unsigned char keypad_scan();
;void compute();
;//void clear();
;
;float number[5];
;unsigned char operator[4];
;int counter = 0;
;unsigned char opcheck = 1;
;
;void main(void) {
; 0000 002C void main(void) {

	.CSEG
_main:
; .FSTART _main
; 0000 002D     unsigned char key_res,i;
; 0000 002E     DDRC = 0xFF;
;	key_res -> R17
;	i -> R16
	LDI  R30,LOW(255)
	OUT  0x14,R30
; 0000 002F     DDRD = 0x0F;
	LDI  R30,LOW(15)
	OUT  0x11,R30
; 0000 0030     PORTC = 0x00;
	LDI  R30,LOW(0)
	OUT  0x15,R30
; 0000 0031 
; 0000 0032     lcd_init(16);
	LDI  R26,LOW(16)
	CALL _lcd_init
; 0000 0033     lcd_clear();
	CALL _lcd_clear
; 0000 0034 
; 0000 0035     while (1) {
_0x3:
; 0000 0036         key_res = keypad_scan();
	RCALL _keypad_scan
	MOV  R17,R30
; 0000 0037 
; 0000 0038         if (key_res != 255) {
	CPI  R17,255
	BRNE PC+2
	RJMP _0x6
; 0000 0039             while (keypad_scan() != 255);
_0x7:
	RCALL _keypad_scan
	CPI  R30,LOW(0xFF)
	BRNE _0x7
; 0000 003A             delay_ms(20);
	LDI  R26,LOW(20)
	LDI  R27,0
	CALL _delay_ms
; 0000 003B             if(key_res >=0 && key_res <=9)
	CPI  R17,0
	BRLO _0xB
	CPI  R17,10
	BRLO _0xC
_0xB:
	RJMP _0xA
_0xC:
; 0000 003C             {
; 0000 003D             lcd_putchar(key_res + 48);
	MOV  R26,R17
	SUBI R26,-LOW(48)
	CALL _lcd_putchar
; 0000 003E             number[counter] *= 10;
	CALL SUBOPT_0x0
	PUSH R31
	PUSH R30
	MOVW R26,R30
	CALL __GETD1P
	__GETD2N 0x41200000
	CALL __MULF12
	POP  R26
	POP  R27
	CALL __PUTDP1
; 0000 003F             number[counter] += key_res;
	CALL SUBOPT_0x0
	PUSH R31
	PUSH R30
	MOVW R26,R30
	CALL __GETD1P
	MOVW R26,R30
	MOVW R24,R22
	MOV  R30,R17
	LDI  R31,0
	CALL __CWD1
	CALL __CDF1
	CALL __ADDF12
	POP  R26
	POP  R27
	CALL __PUTDP1
; 0000 0040             opcheck = 0;
	CLR  R7
; 0000 0041             }
; 0000 0042             else if(key_res == '=')
	RJMP _0xD
_0xA:
	CPI  R17,61
	BRNE _0xE
; 0000 0043             {
; 0000 0044                 lcd_clear();
	RCALL _lcd_clear
; 0000 0045                 compute();
	RCALL _compute
; 0000 0046                 for(i=0;i<5;i++)
	LDI  R16,LOW(0)
_0x10:
	CPI  R16,5
	BRSH _0x11
; 0000 0047                     number[i]=0;
	CALL SUBOPT_0x1
	SUBI R16,-1
	RJMP _0x10
_0x11:
; 0000 0048 counter = 0;
	RJMP _0x67
; 0000 0049                 opcheck = 1;
; 0000 004A 
; 0000 004B             }
; 0000 004C             else if(opcheck == 0)
_0xE:
	TST  R7
	BRNE _0x13
; 0000 004D             {
; 0000 004E                 opcheck = 1;
	LDI  R30,LOW(1)
	MOV  R7,R30
; 0000 004F                 operator[counter] = key_res;
	MOVW R30,R4
	SUBI R30,LOW(-_operator)
	SBCI R31,HIGH(-_operator)
	ST   Z,R17
; 0000 0050                 lcd_putchar(key_res);
	MOV  R26,R17
	RCALL _lcd_putchar
; 0000 0051                 counter ++;
	MOVW R30,R4
	ADIW R30,1
	MOVW R4,R30
; 0000 0052             }
; 0000 0053             else if(key_res == 'c')
	RJMP _0x14
_0x13:
	CPI  R17,99
	BRNE _0x15
; 0000 0054             {
; 0000 0055                 lcd_clear();
	RCALL _lcd_clear
; 0000 0056                 for(i=0;i<5;i++)
	LDI  R16,LOW(0)
_0x17:
	CPI  R16,5
	BRSH _0x18
; 0000 0057                     number[i]=0;
	CALL SUBOPT_0x1
	SUBI R16,-1
	RJMP _0x17
_0x18:
; 0000 0058 counter = 0;
_0x67:
	CLR  R4
	CLR  R5
; 0000 0059                 opcheck = 1;
	LDI  R30,LOW(1)
	MOV  R7,R30
; 0000 005A             }
; 0000 005B         }
_0x15:
_0x14:
_0xD:
; 0000 005C     }
_0x6:
	RJMP _0x3
; 0000 005D }
_0x19:
	RJMP _0x19
; .FEND
;
;
;unsigned char keypad_scan() {
; 0000 0060 unsigned char keypad_scan() {
_keypad_scan:
; .FSTART _keypad_scan
; 0000 0061     unsigned char result = 255;
; 0000 0062 
; 0000 0063     ////////////////////////  ROW1 ////////////////////////
; 0000 0064     KEYPAD_R1 = 1;
	ST   -Y,R17
;	result -> R17
	LDI  R17,255
	SBI  0x12,0
; 0000 0065     KEYPAD_R2 = 0;
	CBI  0x12,1
; 0000 0066     KEYPAD_R3 = 0;
	CALL SUBOPT_0x2
; 0000 0067     KEYPAD_R4 = 0;
; 0000 0068 
; 0000 0069     delay_ms(5);
; 0000 006A     if (KEYPAD_C1)
	SBIS 0x10,4
	RJMP _0x22
; 0000 006B         result = KEYPAD_NUM7;
	LDI  R17,LOW(7)
; 0000 006C     else if (KEYPAD_C2)
	RJMP _0x23
_0x22:
	SBIS 0x10,5
	RJMP _0x24
; 0000 006D         result = KEYPAD_NUM8;
	LDI  R17,LOW(8)
; 0000 006E     else if (KEYPAD_C3)
	RJMP _0x25
_0x24:
	SBIS 0x10,6
	RJMP _0x26
; 0000 006F         result = KEYPAD_NUM9;
	LDI  R17,LOW(9)
; 0000 0070     else if (KEYPAD_C4)
	RJMP _0x27
_0x26:
	SBIC 0x10,7
; 0000 0071         result = DIVIDE;
	LDI  R17,LOW(47)
; 0000 0072 
; 0000 0073 
; 0000 0074     ////////////////////////  ROW2 ////////////////////////
; 0000 0075     KEYPAD_R1 = 0;
_0x27:
_0x25:
_0x23:
	CBI  0x12,0
; 0000 0076     KEYPAD_R2 = 1;
	SBI  0x12,1
; 0000 0077     KEYPAD_R3 = 0;
	CALL SUBOPT_0x2
; 0000 0078     KEYPAD_R4 = 0;
; 0000 0079 
; 0000 007A     delay_ms(5);
; 0000 007B     if (KEYPAD_C1)
	SBIS 0x10,4
	RJMP _0x31
; 0000 007C         result = KEYPAD_NUM4;
	LDI  R17,LOW(4)
; 0000 007D     else if (KEYPAD_C2)
	RJMP _0x32
_0x31:
	SBIS 0x10,5
	RJMP _0x33
; 0000 007E         result = KEYPAD_NUM5;
	LDI  R17,LOW(5)
; 0000 007F     else if (KEYPAD_C3)
	RJMP _0x34
_0x33:
	SBIS 0x10,6
	RJMP _0x35
; 0000 0080         result = KEYPAD_NUM6;
	LDI  R17,LOW(6)
; 0000 0081     else if (KEYPAD_C4)
	RJMP _0x36
_0x35:
	SBIC 0x10,7
; 0000 0082         result = MULTIPLY;
	LDI  R17,LOW(42)
; 0000 0083 
; 0000 0084     ////////////////////////  ROW3 ////////////////////////
; 0000 0085     KEYPAD_R1 = 0;
_0x36:
_0x34:
_0x32:
	CBI  0x12,0
; 0000 0086     KEYPAD_R2 = 0;
	CBI  0x12,1
; 0000 0087     KEYPAD_R3 = 1;
	SBI  0x12,2
; 0000 0088     KEYPAD_R4 = 0;
	CBI  0x12,3
; 0000 0089 
; 0000 008A     delay_ms(5);
	LDI  R26,LOW(5)
	LDI  R27,0
	CALL _delay_ms
; 0000 008B     if (KEYPAD_C1)
	SBIS 0x10,4
	RJMP _0x40
; 0000 008C         result = KEYPAD_NUM1;
	LDI  R17,LOW(1)
; 0000 008D     else if (KEYPAD_C2)
	RJMP _0x41
_0x40:
	SBIS 0x10,5
	RJMP _0x42
; 0000 008E         result = KEYPAD_NUM2;
	LDI  R17,LOW(2)
; 0000 008F     else if (KEYPAD_C3)
	RJMP _0x43
_0x42:
	SBIS 0x10,6
	RJMP _0x44
; 0000 0090         result = KEYPAD_NUM3;
	LDI  R17,LOW(3)
; 0000 0091     else if (KEYPAD_C4)
	RJMP _0x45
_0x44:
	SBIC 0x10,7
; 0000 0092         result = MINUS;
	LDI  R17,LOW(45)
; 0000 0093 
; 0000 0094     ////////////////////////  ROW4 ////////////////////////
; 0000 0095     KEYPAD_R1 = 0;
_0x45:
_0x43:
_0x41:
	CBI  0x12,0
; 0000 0096     KEYPAD_R2 = 0;
	CBI  0x12,1
; 0000 0097     KEYPAD_R3 = 0;
	CBI  0x12,2
; 0000 0098     KEYPAD_R4 = 1;
	SBI  0x12,3
; 0000 0099 
; 0000 009A     delay_ms(5);
	LDI  R26,LOW(5)
	LDI  R27,0
	CALL _delay_ms
; 0000 009B     if (KEYPAD_C2)
	SBIS 0x10,5
	RJMP _0x4F
; 0000 009C         result = KEYPAD_NUM0;
	LDI  R17,LOW(0)
; 0000 009D     else if (KEYPAD_C1)
	RJMP _0x50
_0x4F:
	SBIS 0x10,4
	RJMP _0x51
; 0000 009E         result = CLR;
	LDI  R17,LOW(99)
; 0000 009F     else if (KEYPAD_C4)
	RJMP _0x52
_0x51:
	SBIS 0x10,7
	RJMP _0x53
; 0000 00A0         result = SUM;
	LDI  R17,LOW(43)
; 0000 00A1     else if (KEYPAD_C3)
	RJMP _0x54
_0x53:
	SBIC 0x10,6
; 0000 00A2         result = EQUAL;
	LDI  R17,LOW(61)
; 0000 00A3 
; 0000 00A4     return result;
_0x54:
_0x52:
_0x50:
	MOV  R30,R17
	LD   R17,Y+
	RET
; 0000 00A5 }
; .FEND
;
;void compute()
; 0000 00A8 {
_compute:
; .FSTART _compute
; 0000 00A9     char operators[4]={'/','*','+','-'};
; 0000 00AA     char i,j,k;
; 0000 00AB     int temp;
; 0000 00AC     unsigned char lcd[16];
; 0000 00AD     for(k=0;k<4;k++)
	SBIW R28,20
	LDI  R30,LOW(47)
	STD  Y+16,R30
	LDI  R30,LOW(42)
	STD  Y+17,R30
	LDI  R30,LOW(43)
	STD  Y+18,R30
	LDI  R30,LOW(45)
	STD  Y+19,R30
	CALL __SAVELOCR6
;	operators -> Y+22
;	i -> R17
;	j -> R16
;	k -> R19
;	temp -> R20,R21
;	lcd -> Y+6
	LDI  R19,LOW(0)
_0x57:
	CPI  R19,4
	BRLO PC+2
	RJMP _0x58
; 0000 00AE     {
; 0000 00AF         for(i=0;i<counter;i++)
	LDI  R17,LOW(0)
_0x5A:
	MOVW R30,R4
	MOV  R26,R17
	LDI  R27,0
	CP   R26,R30
	CPC  R27,R31
	BRLT PC+2
	RJMP _0x5B
; 0000 00B0         {
; 0000 00B1             if(operator[i] == operators[k])
	MOV  R30,R17
	LDI  R31,0
	SUBI R30,LOW(-_operator)
	SBCI R31,HIGH(-_operator)
	LD   R0,Z
	CALL SUBOPT_0x3
	LD   R30,X
	CP   R30,R0
	BREQ PC+2
	RJMP _0x5C
; 0000 00B2             {
; 0000 00B3                 if (operators[k] == '/')
	CALL SUBOPT_0x3
	LD   R26,X
	CPI  R26,LOW(0x2F)
	BRNE _0x5D
; 0000 00B4                 {
; 0000 00B5                     number[i] = number[i] / number [i+1];
	CALL SUBOPT_0x4
	ADD  R30,R26
	ADC  R31,R27
	PUSH R31
	PUSH R30
	CALL SUBOPT_0x4
	CALL SUBOPT_0x5
	PUSH R23
	PUSH R22
	PUSH R31
	PUSH R30
	CALL SUBOPT_0x6
	POP  R26
	POP  R27
	POP  R24
	POP  R25
	CALL __DIVF21
	POP  R26
	POP  R27
	RJMP _0x68
; 0000 00B6                 }
; 0000 00B7                 else if(operators[k] == '*')
_0x5D:
	CALL SUBOPT_0x3
	LD   R26,X
	CPI  R26,LOW(0x2A)
	BRNE _0x5F
; 0000 00B8                 {
; 0000 00B9                     number[i] = number[i] * number [i+1];
	CALL SUBOPT_0x4
	ADD  R30,R26
	ADC  R31,R27
	PUSH R31
	PUSH R30
	CALL SUBOPT_0x4
	CALL SUBOPT_0x5
	PUSH R23
	PUSH R22
	PUSH R31
	PUSH R30
	CALL SUBOPT_0x6
	POP  R26
	POP  R27
	POP  R24
	POP  R25
	CALL __MULF12
	POP  R26
	POP  R27
	RJMP _0x68
; 0000 00BA                 }
; 0000 00BB                 else if(operators[k] == '+')
_0x5F:
	CALL SUBOPT_0x3
	LD   R26,X
	CPI  R26,LOW(0x2B)
	BRNE _0x61
; 0000 00BC                 {
; 0000 00BD                     number[i] = number[i] + number [i+1];
	CALL SUBOPT_0x4
	ADD  R30,R26
	ADC  R31,R27
	PUSH R31
	PUSH R30
	CALL SUBOPT_0x4
	CALL SUBOPT_0x5
	PUSH R23
	PUSH R22
	PUSH R31
	PUSH R30
	CALL SUBOPT_0x6
	POP  R26
	POP  R27
	POP  R24
	POP  R25
	CALL __ADDF12
	POP  R26
	POP  R27
	RJMP _0x68
; 0000 00BE                 }
; 0000 00BF                 else if (operators[k] == '-')
_0x61:
	CALL SUBOPT_0x3
	LD   R26,X
	CPI  R26,LOW(0x2D)
	BRNE _0x63
; 0000 00C0                 {
; 0000 00C1                     number[i] = number[i] - number [i+1];
	CALL SUBOPT_0x4
	ADD  R30,R26
	ADC  R31,R27
	PUSH R31
	PUSH R30
	CALL SUBOPT_0x4
	CALL SUBOPT_0x5
	PUSH R23
	PUSH R22
	PUSH R31
	PUSH R30
	CALL SUBOPT_0x6
	POP  R26
	POP  R27
	POP  R24
	POP  R25
	CALL __SWAPD12
	CALL __SUBF12
	POP  R26
	POP  R27
_0x68:
	CALL __PUTDP1
; 0000 00C2                 }
; 0000 00C3                 //shift nums to left in array
; 0000 00C4                 for(j=i;j<counter-1;j++)
_0x63:
	MOV  R16,R17
_0x65:
	MOVW R30,R4
	SBIW R30,1
	MOV  R26,R16
	LDI  R27,0
	CP   R26,R30
	CPC  R27,R31
	BRGE _0x66
; 0000 00C5                 {
; 0000 00C6                     operator[j] = operator[j+1];
	MOV  R26,R16
	LDI  R27,0
	SUBI R26,LOW(-_operator)
	SBCI R27,HIGH(-_operator)
	MOV  R30,R16
	LDI  R31,0
	__ADDW1MN _operator,1
	LD   R30,Z
	ST   X,R30
; 0000 00C7                     number[j+1] = number[j+2];
	MOV  R30,R16
	LDI  R31,0
	ADIW R30,1
	LDI  R26,LOW(_number)
	LDI  R27,HIGH(_number)
	CALL __LSLW2
	ADD  R30,R26
	ADC  R31,R27
	MOVW R0,R30
	MOV  R26,R16
	CLR  R27
	CALL __MULW2_4
	__ADDW2MN _number,8
	CALL __GETD1P
	MOVW R26,R0
	CALL __PUTDP1
; 0000 00C8                 }
	SUBI R16,-1
	RJMP _0x65
_0x66:
; 0000 00C9                 counter --;
	MOVW R30,R4
	SBIW R30,1
	MOVW R4,R30
; 0000 00CA             }
; 0000 00CB         }
_0x5C:
	SUBI R17,-1
	RJMP _0x5A
_0x5B:
; 0000 00CC 
; 0000 00CD 
; 0000 00CE     }
	SUBI R19,-1
	RJMP _0x57
_0x58:
; 0000 00CF     temp = number[0];
	LDS  R30,_number
	LDS  R31,_number+1
	LDS  R22,_number+2
	LDS  R23,_number+3
	CALL __CFD1
	MOVW R20,R30
; 0000 00D0     sprintf(lcd,"%d",temp);
	MOVW R30,R28
	ADIW R30,6
	ST   -Y,R31
	ST   -Y,R30
	__POINTW1FN _0x0,0
	ST   -Y,R31
	ST   -Y,R30
	MOVW R30,R20
	CALL __CWD1
	CALL __PUTPARD1
	LDI  R24,4
	CALL _sprintf
	ADIW R28,8
; 0000 00D1         lcd_puts(lcd);
	MOVW R26,R28
	ADIW R26,6
	RCALL _lcd_puts
; 0000 00D2 }
	CALL __LOADLOCR6
	ADIW R28,26
	RET
; .FEND
;/*void clear()
;{  char i;
;    for(i=0;i<5;i++)
;        number[i]=0;
;    counter = 0;
;    opcheck = 1;
;
;}*/
	#ifndef __SLEEP_DEFINED__
	#define __SLEEP_DEFINED__
	.EQU __se_bit=0x80
	.EQU __sm_mask=0x70
	.EQU __sm_powerdown=0x20
	.EQU __sm_powersave=0x30
	.EQU __sm_standby=0x60
	.EQU __sm_ext_standby=0x70
	.EQU __sm_adc_noise_red=0x10
	.SET power_ctrl_reg=mcucr
	#endif

	.DSEG

	.CSEG
__lcd_write_nibble_G100:
; .FSTART __lcd_write_nibble_G100
	ST   -Y,R26
	IN   R30,0x15
	ANDI R30,LOW(0xF)
	MOV  R26,R30
	LD   R30,Y
	ANDI R30,LOW(0xF0)
	OR   R30,R26
	OUT  0x15,R30
	__DELAY_USB 13
	SBI  0x15,2
	__DELAY_USB 13
	CBI  0x15,2
	__DELAY_USB 13
	RJMP _0x20C0002
; .FEND
__lcd_write_data:
; .FSTART __lcd_write_data
	ST   -Y,R26
	LD   R26,Y
	RCALL __lcd_write_nibble_G100
    ld    r30,y
    swap  r30
    st    y,r30
	LD   R26,Y
	RCALL __lcd_write_nibble_G100
	__DELAY_USB 133
	RJMP _0x20C0002
; .FEND
_lcd_gotoxy:
; .FSTART _lcd_gotoxy
	ST   -Y,R26
	LD   R30,Y
	LDI  R31,0
	SUBI R30,LOW(-__base_y_G100)
	SBCI R31,HIGH(-__base_y_G100)
	LD   R30,Z
	LDD  R26,Y+1
	ADD  R26,R30
	RCALL __lcd_write_data
	LDD  R6,Y+1
	LDD  R9,Y+0
	ADIW R28,2
	RET
; .FEND
_lcd_clear:
; .FSTART _lcd_clear
	LDI  R26,LOW(2)
	CALL SUBOPT_0x7
	LDI  R26,LOW(12)
	RCALL __lcd_write_data
	LDI  R26,LOW(1)
	CALL SUBOPT_0x7
	LDI  R30,LOW(0)
	MOV  R9,R30
	MOV  R6,R30
	RET
; .FEND
_lcd_putchar:
; .FSTART _lcd_putchar
	ST   -Y,R26
	LD   R26,Y
	CPI  R26,LOW(0xA)
	BREQ _0x2000005
	CP   R6,R8
	BRLO _0x2000004
_0x2000005:
	LDI  R30,LOW(0)
	ST   -Y,R30
	INC  R9
	MOV  R26,R9
	RCALL _lcd_gotoxy
	LD   R26,Y
	CPI  R26,LOW(0xA)
	BRNE _0x2000007
	RJMP _0x20C0002
_0x2000007:
_0x2000004:
	INC  R6
	SBI  0x15,0
	LD   R26,Y
	RCALL __lcd_write_data
	CBI  0x15,0
	RJMP _0x20C0002
; .FEND
_lcd_puts:
; .FSTART _lcd_puts
	ST   -Y,R27
	ST   -Y,R26
	ST   -Y,R17
_0x2000008:
	LDD  R26,Y+1
	LDD  R27,Y+1+1
	LD   R30,X+
	STD  Y+1,R26
	STD  Y+1+1,R27
	MOV  R17,R30
	CPI  R30,0
	BREQ _0x200000A
	MOV  R26,R17
	RCALL _lcd_putchar
	RJMP _0x2000008
_0x200000A:
	LDD  R17,Y+0
	ADIW R28,3
	RET
; .FEND
_lcd_init:
; .FSTART _lcd_init
	ST   -Y,R26
	IN   R30,0x14
	ORI  R30,LOW(0xF0)
	OUT  0x14,R30
	SBI  0x14,2
	SBI  0x14,0
	SBI  0x14,1
	CBI  0x15,2
	CBI  0x15,0
	CBI  0x15,1
	LDD  R8,Y+0
	LD   R30,Y
	SUBI R30,-LOW(128)
	__PUTB1MN __base_y_G100,2
	LD   R30,Y
	SUBI R30,-LOW(192)
	__PUTB1MN __base_y_G100,3
	LDI  R26,LOW(20)
	LDI  R27,0
	CALL _delay_ms
	CALL SUBOPT_0x8
	CALL SUBOPT_0x8
	CALL SUBOPT_0x8
	LDI  R26,LOW(32)
	RCALL __lcd_write_nibble_G100
	__DELAY_USW 200
	LDI  R26,LOW(40)
	RCALL __lcd_write_data
	LDI  R26,LOW(4)
	RCALL __lcd_write_data
	LDI  R26,LOW(133)
	RCALL __lcd_write_data
	LDI  R26,LOW(6)
	RCALL __lcd_write_data
	RCALL _lcd_clear
_0x20C0002:
	ADIW R28,1
	RET
; .FEND

	.CSEG

	.DSEG

	.CSEG
	#ifndef __SLEEP_DEFINED__
	#define __SLEEP_DEFINED__
	.EQU __se_bit=0x80
	.EQU __sm_mask=0x70
	.EQU __sm_powerdown=0x20
	.EQU __sm_powersave=0x30
	.EQU __sm_standby=0x60
	.EQU __sm_ext_standby=0x70
	.EQU __sm_adc_noise_red=0x10
	.SET power_ctrl_reg=mcucr
	#endif

	.CSEG
_put_buff_G102:
; .FSTART _put_buff_G102
	ST   -Y,R27
	ST   -Y,R26
	ST   -Y,R17
	ST   -Y,R16
	LDD  R26,Y+2
	LDD  R27,Y+2+1
	ADIW R26,2
	CALL __GETW1P
	SBIW R30,0
	BREQ _0x2040010
	LDD  R26,Y+2
	LDD  R27,Y+2+1
	ADIW R26,4
	CALL __GETW1P
	MOVW R16,R30
	SBIW R30,0
	BREQ _0x2040012
	__CPWRN 16,17,2
	BRLO _0x2040013
	MOVW R30,R16
	SBIW R30,1
	MOVW R16,R30
	__PUTW1SNS 2,4
_0x2040012:
	LDD  R26,Y+2
	LDD  R27,Y+2+1
	ADIW R26,2
	LD   R30,X+
	LD   R31,X+
	ADIW R30,1
	ST   -X,R31
	ST   -X,R30
	SBIW R30,1
	LDD  R26,Y+4
	STD  Z+0,R26
_0x2040013:
	LDD  R26,Y+2
	LDD  R27,Y+2+1
	CALL __GETW1P
	TST  R31
	BRMI _0x2040014
	LD   R30,X+
	LD   R31,X+
	ADIW R30,1
	ST   -X,R31
	ST   -X,R30
_0x2040014:
	RJMP _0x2040015
_0x2040010:
	LDD  R26,Y+2
	LDD  R27,Y+2+1
	LDI  R30,LOW(65535)
	LDI  R31,HIGH(65535)
	ST   X+,R30
	ST   X,R31
_0x2040015:
	LDD  R17,Y+1
	LDD  R16,Y+0
	ADIW R28,5
	RET
; .FEND
__print_G102:
; .FSTART __print_G102
	ST   -Y,R27
	ST   -Y,R26
	SBIW R28,6
	CALL __SAVELOCR6
	LDI  R17,0
	LDD  R26,Y+12
	LDD  R27,Y+12+1
	LDI  R30,LOW(0)
	LDI  R31,HIGH(0)
	ST   X+,R30
	ST   X,R31
_0x2040016:
	LDD  R30,Y+18
	LDD  R31,Y+18+1
	ADIW R30,1
	STD  Y+18,R30
	STD  Y+18+1,R31
	SBIW R30,1
	LPM  R30,Z
	MOV  R18,R30
	CPI  R30,0
	BRNE PC+2
	RJMP _0x2040018
	MOV  R30,R17
	CPI  R30,0
	BRNE _0x204001C
	CPI  R18,37
	BRNE _0x204001D
	LDI  R17,LOW(1)
	RJMP _0x204001E
_0x204001D:
	CALL SUBOPT_0x9
_0x204001E:
	RJMP _0x204001B
_0x204001C:
	CPI  R30,LOW(0x1)
	BRNE _0x204001F
	CPI  R18,37
	BRNE _0x2040020
	CALL SUBOPT_0x9
	RJMP _0x20400CC
_0x2040020:
	LDI  R17,LOW(2)
	LDI  R20,LOW(0)
	LDI  R16,LOW(0)
	CPI  R18,45
	BRNE _0x2040021
	LDI  R16,LOW(1)
	RJMP _0x204001B
_0x2040021:
	CPI  R18,43
	BRNE _0x2040022
	LDI  R20,LOW(43)
	RJMP _0x204001B
_0x2040022:
	CPI  R18,32
	BRNE _0x2040023
	LDI  R20,LOW(32)
	RJMP _0x204001B
_0x2040023:
	RJMP _0x2040024
_0x204001F:
	CPI  R30,LOW(0x2)
	BRNE _0x2040025
_0x2040024:
	LDI  R21,LOW(0)
	LDI  R17,LOW(3)
	CPI  R18,48
	BRNE _0x2040026
	ORI  R16,LOW(128)
	RJMP _0x204001B
_0x2040026:
	RJMP _0x2040027
_0x2040025:
	CPI  R30,LOW(0x3)
	BREQ PC+2
	RJMP _0x204001B
_0x2040027:
	CPI  R18,48
	BRLO _0x204002A
	CPI  R18,58
	BRLO _0x204002B
_0x204002A:
	RJMP _0x2040029
_0x204002B:
	LDI  R26,LOW(10)
	MUL  R21,R26
	MOV  R21,R0
	MOV  R30,R18
	SUBI R30,LOW(48)
	ADD  R21,R30
	RJMP _0x204001B
_0x2040029:
	MOV  R30,R18
	CPI  R30,LOW(0x63)
	BRNE _0x204002F
	CALL SUBOPT_0xA
	LDD  R30,Y+16
	LDD  R31,Y+16+1
	LDD  R26,Z+4
	ST   -Y,R26
	CALL SUBOPT_0xB
	RJMP _0x2040030
_0x204002F:
	CPI  R30,LOW(0x73)
	BRNE _0x2040032
	CALL SUBOPT_0xA
	CALL SUBOPT_0xC
	CALL _strlen
	MOV  R17,R30
	RJMP _0x2040033
_0x2040032:
	CPI  R30,LOW(0x70)
	BRNE _0x2040035
	CALL SUBOPT_0xA
	CALL SUBOPT_0xC
	CALL _strlenf
	MOV  R17,R30
	ORI  R16,LOW(8)
_0x2040033:
	ORI  R16,LOW(2)
	ANDI R16,LOW(127)
	LDI  R19,LOW(0)
	RJMP _0x2040036
_0x2040035:
	CPI  R30,LOW(0x64)
	BREQ _0x2040039
	CPI  R30,LOW(0x69)
	BRNE _0x204003A
_0x2040039:
	ORI  R16,LOW(4)
	RJMP _0x204003B
_0x204003A:
	CPI  R30,LOW(0x75)
	BRNE _0x204003C
_0x204003B:
	LDI  R30,LOW(_tbl10_G102*2)
	LDI  R31,HIGH(_tbl10_G102*2)
	STD  Y+6,R30
	STD  Y+6+1,R31
	LDI  R17,LOW(5)
	RJMP _0x204003D
_0x204003C:
	CPI  R30,LOW(0x58)
	BRNE _0x204003F
	ORI  R16,LOW(8)
	RJMP _0x2040040
_0x204003F:
	CPI  R30,LOW(0x78)
	BREQ PC+2
	RJMP _0x2040071
_0x2040040:
	LDI  R30,LOW(_tbl16_G102*2)
	LDI  R31,HIGH(_tbl16_G102*2)
	STD  Y+6,R30
	STD  Y+6+1,R31
	LDI  R17,LOW(4)
_0x204003D:
	SBRS R16,2
	RJMP _0x2040042
	CALL SUBOPT_0xA
	CALL SUBOPT_0xD
	LDD  R26,Y+11
	TST  R26
	BRPL _0x2040043
	LDD  R30,Y+10
	LDD  R31,Y+10+1
	CALL __ANEGW1
	STD  Y+10,R30
	STD  Y+10+1,R31
	LDI  R20,LOW(45)
_0x2040043:
	CPI  R20,0
	BREQ _0x2040044
	SUBI R17,-LOW(1)
	RJMP _0x2040045
_0x2040044:
	ANDI R16,LOW(251)
_0x2040045:
	RJMP _0x2040046
_0x2040042:
	CALL SUBOPT_0xA
	CALL SUBOPT_0xD
_0x2040046:
_0x2040036:
	SBRC R16,0
	RJMP _0x2040047
_0x2040048:
	CP   R17,R21
	BRSH _0x204004A
	SBRS R16,7
	RJMP _0x204004B
	SBRS R16,2
	RJMP _0x204004C
	ANDI R16,LOW(251)
	MOV  R18,R20
	SUBI R17,LOW(1)
	RJMP _0x204004D
_0x204004C:
	LDI  R18,LOW(48)
_0x204004D:
	RJMP _0x204004E
_0x204004B:
	LDI  R18,LOW(32)
_0x204004E:
	CALL SUBOPT_0x9
	SUBI R21,LOW(1)
	RJMP _0x2040048
_0x204004A:
_0x2040047:
	MOV  R19,R17
	SBRS R16,1
	RJMP _0x204004F
_0x2040050:
	CPI  R19,0
	BREQ _0x2040052
	SBRS R16,3
	RJMP _0x2040053
	LDD  R30,Y+6
	LDD  R31,Y+6+1
	LPM  R18,Z+
	STD  Y+6,R30
	STD  Y+6+1,R31
	RJMP _0x2040054
_0x2040053:
	LDD  R26,Y+6
	LDD  R27,Y+6+1
	LD   R18,X+
	STD  Y+6,R26
	STD  Y+6+1,R27
_0x2040054:
	CALL SUBOPT_0x9
	CPI  R21,0
	BREQ _0x2040055
	SUBI R21,LOW(1)
_0x2040055:
	SUBI R19,LOW(1)
	RJMP _0x2040050
_0x2040052:
	RJMP _0x2040056
_0x204004F:
_0x2040058:
	LDI  R18,LOW(48)
	LDD  R30,Y+6
	LDD  R31,Y+6+1
	CALL __GETW1PF
	STD  Y+8,R30
	STD  Y+8+1,R31
	LDD  R30,Y+6
	LDD  R31,Y+6+1
	ADIW R30,2
	STD  Y+6,R30
	STD  Y+6+1,R31
_0x204005A:
	LDD  R30,Y+8
	LDD  R31,Y+8+1
	LDD  R26,Y+10
	LDD  R27,Y+10+1
	CP   R26,R30
	CPC  R27,R31
	BRLO _0x204005C
	SUBI R18,-LOW(1)
	LDD  R26,Y+8
	LDD  R27,Y+8+1
	LDD  R30,Y+10
	LDD  R31,Y+10+1
	SUB  R30,R26
	SBC  R31,R27
	STD  Y+10,R30
	STD  Y+10+1,R31
	RJMP _0x204005A
_0x204005C:
	CPI  R18,58
	BRLO _0x204005D
	SBRS R16,3
	RJMP _0x204005E
	SUBI R18,-LOW(7)
	RJMP _0x204005F
_0x204005E:
	SUBI R18,-LOW(39)
_0x204005F:
_0x204005D:
	SBRC R16,4
	RJMP _0x2040061
	CPI  R18,49
	BRSH _0x2040063
	LDD  R26,Y+8
	LDD  R27,Y+8+1
	SBIW R26,1
	BRNE _0x2040062
_0x2040063:
	RJMP _0x20400CD
_0x2040062:
	CP   R21,R19
	BRLO _0x2040067
	SBRS R16,0
	RJMP _0x2040068
_0x2040067:
	RJMP _0x2040066
_0x2040068:
	LDI  R18,LOW(32)
	SBRS R16,7
	RJMP _0x2040069
	LDI  R18,LOW(48)
_0x20400CD:
	ORI  R16,LOW(16)
	SBRS R16,2
	RJMP _0x204006A
	ANDI R16,LOW(251)
	ST   -Y,R20
	CALL SUBOPT_0xB
	CPI  R21,0
	BREQ _0x204006B
	SUBI R21,LOW(1)
_0x204006B:
_0x204006A:
_0x2040069:
_0x2040061:
	CALL SUBOPT_0x9
	CPI  R21,0
	BREQ _0x204006C
	SUBI R21,LOW(1)
_0x204006C:
_0x2040066:
	SUBI R19,LOW(1)
	LDD  R26,Y+8
	LDD  R27,Y+8+1
	SBIW R26,2
	BRLO _0x2040059
	RJMP _0x2040058
_0x2040059:
_0x2040056:
	SBRS R16,0
	RJMP _0x204006D
_0x204006E:
	CPI  R21,0
	BREQ _0x2040070
	SUBI R21,LOW(1)
	LDI  R30,LOW(32)
	ST   -Y,R30
	CALL SUBOPT_0xB
	RJMP _0x204006E
_0x2040070:
_0x204006D:
_0x2040071:
_0x2040030:
_0x20400CC:
	LDI  R17,LOW(0)
_0x204001B:
	RJMP _0x2040016
_0x2040018:
	LDD  R26,Y+12
	LDD  R27,Y+12+1
	CALL __GETW1P
	CALL __LOADLOCR6
	ADIW R28,20
	RET
; .FEND
_sprintf:
; .FSTART _sprintf
	PUSH R15
	MOV  R15,R24
	SBIW R28,6
	CALL __SAVELOCR4
	CALL SUBOPT_0xE
	SBIW R30,0
	BRNE _0x2040072
	LDI  R30,LOW(65535)
	LDI  R31,HIGH(65535)
	RJMP _0x20C0001
_0x2040072:
	MOVW R26,R28
	ADIW R26,6
	CALL __ADDW2R15
	MOVW R16,R26
	CALL SUBOPT_0xE
	STD  Y+6,R30
	STD  Y+6+1,R31
	LDI  R30,LOW(0)
	STD  Y+8,R30
	STD  Y+8+1,R30
	MOVW R26,R28
	ADIW R26,10
	CALL __ADDW2R15
	CALL __GETW1P
	ST   -Y,R31
	ST   -Y,R30
	ST   -Y,R17
	ST   -Y,R16
	LDI  R30,LOW(_put_buff_G102)
	LDI  R31,HIGH(_put_buff_G102)
	ST   -Y,R31
	ST   -Y,R30
	MOVW R26,R28
	ADIW R26,10
	RCALL __print_G102
	MOVW R18,R30
	LDD  R26,Y+6
	LDD  R27,Y+6+1
	LDI  R30,LOW(0)
	ST   X,R30
	MOVW R30,R18
_0x20C0001:
	CALL __LOADLOCR4
	ADIW R28,10
	POP  R15
	RET
; .FEND

	.CSEG

	.CSEG

	.CSEG
_strlen:
; .FSTART _strlen
	ST   -Y,R27
	ST   -Y,R26
    ld   r26,y+
    ld   r27,y+
    clr  r30
    clr  r31
strlen0:
    ld   r22,x+
    tst  r22
    breq strlen1
    adiw r30,1
    rjmp strlen0
strlen1:
    ret
; .FEND
_strlenf:
; .FSTART _strlenf
	ST   -Y,R27
	ST   -Y,R26
    clr  r26
    clr  r27
    ld   r30,y+
    ld   r31,y+
strlenf0:
	lpm  r0,z+
    tst  r0
    breq strlenf1
    adiw r26,1
    rjmp strlenf0
strlenf1:
    movw r30,r26
    ret
; .FEND

	.DSEG
_number:
	.BYTE 0x14
_operator:
	.BYTE 0x4
__base_y_G100:
	.BYTE 0x4
__seed_G101:
	.BYTE 0x4

	.CSEG
;OPTIMIZER ADDED SUBROUTINE, CALLED 2 TIMES, CODE SIZE REDUCTION:2 WORDS
SUBOPT_0x0:
	MOVW R30,R4
	LDI  R26,LOW(_number)
	LDI  R27,HIGH(_number)
	CALL __LSLW2
	ADD  R30,R26
	ADC  R31,R27
	RET

;OPTIMIZER ADDED SUBROUTINE, CALLED 2 TIMES, CODE SIZE REDUCTION:9 WORDS
SUBOPT_0x1:
	MOV  R30,R16
	LDI  R26,LOW(_number)
	LDI  R27,HIGH(_number)
	LDI  R31,0
	CALL __LSLW2
	ADD  R26,R30
	ADC  R27,R31
	__GETD1N 0x0
	CALL __PUTDP1
	RET

;OPTIMIZER ADDED SUBROUTINE, CALLED 2 TIMES, CODE SIZE REDUCTION:1 WORDS
SUBOPT_0x2:
	CBI  0x12,2
	CBI  0x12,3
	LDI  R26,LOW(5)
	LDI  R27,0
	JMP  _delay_ms

;OPTIMIZER ADDED SUBROUTINE, CALLED 5 TIMES, CODE SIZE REDUCTION:13 WORDS
SUBOPT_0x3:
	MOV  R30,R19
	LDI  R31,0
	MOVW R26,R28
	ADIW R26,22
	ADD  R26,R30
	ADC  R27,R31
	RET

;OPTIMIZER ADDED SUBROUTINE, CALLED 8 TIMES, CODE SIZE REDUCTION:25 WORDS
SUBOPT_0x4:
	MOV  R30,R17
	LDI  R26,LOW(_number)
	LDI  R27,HIGH(_number)
	LDI  R31,0
	CALL __LSLW2
	RET

;OPTIMIZER ADDED SUBROUTINE, CALLED 4 TIMES, CODE SIZE REDUCTION:3 WORDS
SUBOPT_0x5:
	ADD  R26,R30
	ADC  R27,R31
	CALL __GETD1P
	RET

;OPTIMIZER ADDED SUBROUTINE, CALLED 4 TIMES, CODE SIZE REDUCTION:15 WORDS
SUBOPT_0x6:
	MOV  R26,R17
	CLR  R27
	CALL __MULW2_4
	__ADDW2MN _number,4
	CALL __GETD1P
	RET

;OPTIMIZER ADDED SUBROUTINE, CALLED 2 TIMES, CODE SIZE REDUCTION:1 WORDS
SUBOPT_0x7:
	CALL __lcd_write_data
	LDI  R26,LOW(3)
	LDI  R27,0
	JMP  _delay_ms

;OPTIMIZER ADDED SUBROUTINE, CALLED 3 TIMES, CODE SIZE REDUCTION:7 WORDS
SUBOPT_0x8:
	LDI  R26,LOW(48)
	CALL __lcd_write_nibble_G100
	__DELAY_USW 200
	RET

;OPTIMIZER ADDED SUBROUTINE, CALLED 5 TIMES, CODE SIZE REDUCTION:13 WORDS
SUBOPT_0x9:
	ST   -Y,R18
	LDD  R26,Y+13
	LDD  R27,Y+13+1
	LDD  R30,Y+15
	LDD  R31,Y+15+1
	ICALL
	RET

;OPTIMIZER ADDED SUBROUTINE, CALLED 5 TIMES, CODE SIZE REDUCTION:9 WORDS
SUBOPT_0xA:
	LDD  R30,Y+16
	LDD  R31,Y+16+1
	SBIW R30,4
	STD  Y+16,R30
	STD  Y+16+1,R31
	RET

;OPTIMIZER ADDED SUBROUTINE, CALLED 3 TIMES, CODE SIZE REDUCTION:3 WORDS
SUBOPT_0xB:
	LDD  R26,Y+13
	LDD  R27,Y+13+1
	LDD  R30,Y+15
	LDD  R31,Y+15+1
	ICALL
	RET

;OPTIMIZER ADDED SUBROUTINE, CALLED 2 TIMES, CODE SIZE REDUCTION:4 WORDS
SUBOPT_0xC:
	LDD  R26,Y+16
	LDD  R27,Y+16+1
	ADIW R26,4
	CALL __GETW1P
	STD  Y+6,R30
	STD  Y+6+1,R31
	LDD  R26,Y+6
	LDD  R27,Y+6+1
	RET

;OPTIMIZER ADDED SUBROUTINE, CALLED 2 TIMES, CODE SIZE REDUCTION:2 WORDS
SUBOPT_0xD:
	LDD  R26,Y+16
	LDD  R27,Y+16+1
	ADIW R26,4
	CALL __GETW1P
	STD  Y+10,R30
	STD  Y+10+1,R31
	RET

;OPTIMIZER ADDED SUBROUTINE, CALLED 2 TIMES, CODE SIZE REDUCTION:1 WORDS
SUBOPT_0xE:
	MOVW R26,R28
	ADIW R26,12
	CALL __ADDW2R15
	CALL __GETW1P
	RET


	.CSEG
_delay_ms:
	adiw r26,0
	breq __delay_ms1
__delay_ms0:
	__DELAY_USW 0x7D0
	wdr
	sbiw r26,1
	brne __delay_ms0
__delay_ms1:
	ret

__ROUND_REPACK:
	TST  R21
	BRPL __REPACK
	CPI  R21,0x80
	BRNE __ROUND_REPACK0
	SBRS R30,0
	RJMP __REPACK
__ROUND_REPACK0:
	ADIW R30,1
	ADC  R22,R25
	ADC  R23,R25
	BRVS __REPACK1

__REPACK:
	LDI  R21,0x80
	EOR  R21,R23
	BRNE __REPACK0
	PUSH R21
	RJMP __ZERORES
__REPACK0:
	CPI  R21,0xFF
	BREQ __REPACK1
	LSL  R22
	LSL  R0
	ROR  R21
	ROR  R22
	MOV  R23,R21
	RET
__REPACK1:
	PUSH R21
	TST  R0
	BRMI __REPACK2
	RJMP __MAXRES
__REPACK2:
	RJMP __MINRES

__UNPACK:
	LDI  R21,0x80
	MOV  R1,R25
	AND  R1,R21
	LSL  R24
	ROL  R25
	EOR  R25,R21
	LSL  R21
	ROR  R24

__UNPACK1:
	LDI  R21,0x80
	MOV  R0,R23
	AND  R0,R21
	LSL  R22
	ROL  R23
	EOR  R23,R21
	LSL  R21
	ROR  R22
	RET

__CFD1U:
	SET
	RJMP __CFD1U0
__CFD1:
	CLT
__CFD1U0:
	PUSH R21
	RCALL __UNPACK1
	CPI  R23,0x80
	BRLO __CFD10
	CPI  R23,0xFF
	BRCC __CFD10
	RJMP __ZERORES
__CFD10:
	LDI  R21,22
	SUB  R21,R23
	BRPL __CFD11
	NEG  R21
	CPI  R21,8
	BRTC __CFD19
	CPI  R21,9
__CFD19:
	BRLO __CFD17
	SER  R30
	SER  R31
	SER  R22
	LDI  R23,0x7F
	BLD  R23,7
	RJMP __CFD15
__CFD17:
	CLR  R23
	TST  R21
	BREQ __CFD15
__CFD18:
	LSL  R30
	ROL  R31
	ROL  R22
	ROL  R23
	DEC  R21
	BRNE __CFD18
	RJMP __CFD15
__CFD11:
	CLR  R23
__CFD12:
	CPI  R21,8
	BRLO __CFD13
	MOV  R30,R31
	MOV  R31,R22
	MOV  R22,R23
	SUBI R21,8
	RJMP __CFD12
__CFD13:
	TST  R21
	BREQ __CFD15
__CFD14:
	LSR  R23
	ROR  R22
	ROR  R31
	ROR  R30
	DEC  R21
	BRNE __CFD14
__CFD15:
	TST  R0
	BRPL __CFD16
	RCALL __ANEGD1
__CFD16:
	POP  R21
	RET

__CDF1U:
	SET
	RJMP __CDF1U0
__CDF1:
	CLT
__CDF1U0:
	SBIW R30,0
	SBCI R22,0
	SBCI R23,0
	BREQ __CDF10
	CLR  R0
	BRTS __CDF11
	TST  R23
	BRPL __CDF11
	COM  R0
	RCALL __ANEGD1
__CDF11:
	MOV  R1,R23
	LDI  R23,30
	TST  R1
__CDF12:
	BRMI __CDF13
	DEC  R23
	LSL  R30
	ROL  R31
	ROL  R22
	ROL  R1
	RJMP __CDF12
__CDF13:
	MOV  R30,R31
	MOV  R31,R22
	MOV  R22,R1
	PUSH R21
	RCALL __REPACK
	POP  R21
__CDF10:
	RET

__SWAPACC:
	PUSH R20
	MOVW R20,R30
	MOVW R30,R26
	MOVW R26,R20
	MOVW R20,R22
	MOVW R22,R24
	MOVW R24,R20
	MOV  R20,R0
	MOV  R0,R1
	MOV  R1,R20
	POP  R20
	RET

__UADD12:
	ADD  R30,R26
	ADC  R31,R27
	ADC  R22,R24
	RET

__NEGMAN1:
	COM  R30
	COM  R31
	COM  R22
	SUBI R30,-1
	SBCI R31,-1
	SBCI R22,-1
	RET

__SUBF12:
	PUSH R21
	RCALL __UNPACK
	CPI  R25,0x80
	BREQ __ADDF129
	LDI  R21,0x80
	EOR  R1,R21

	RJMP __ADDF120

__ADDF12:
	PUSH R21
	RCALL __UNPACK
	CPI  R25,0x80
	BREQ __ADDF129

__ADDF120:
	CPI  R23,0x80
	BREQ __ADDF128
__ADDF121:
	MOV  R21,R23
	SUB  R21,R25
	BRVS __ADDF1211
	BRPL __ADDF122
	RCALL __SWAPACC
	RJMP __ADDF121
__ADDF122:
	CPI  R21,24
	BRLO __ADDF123
	CLR  R26
	CLR  R27
	CLR  R24
__ADDF123:
	CPI  R21,8
	BRLO __ADDF124
	MOV  R26,R27
	MOV  R27,R24
	CLR  R24
	SUBI R21,8
	RJMP __ADDF123
__ADDF124:
	TST  R21
	BREQ __ADDF126
__ADDF125:
	LSR  R24
	ROR  R27
	ROR  R26
	DEC  R21
	BRNE __ADDF125
__ADDF126:
	MOV  R21,R0
	EOR  R21,R1
	BRMI __ADDF127
	RCALL __UADD12
	BRCC __ADDF129
	ROR  R22
	ROR  R31
	ROR  R30
	INC  R23
	BRVC __ADDF129
	RJMP __MAXRES
__ADDF128:
	RCALL __SWAPACC
__ADDF129:
	RCALL __REPACK
	POP  R21
	RET
__ADDF1211:
	BRCC __ADDF128
	RJMP __ADDF129
__ADDF127:
	SUB  R30,R26
	SBC  R31,R27
	SBC  R22,R24
	BREQ __ZERORES
	BRCC __ADDF1210
	COM  R0
	RCALL __NEGMAN1
__ADDF1210:
	TST  R22
	BRMI __ADDF129
	LSL  R30
	ROL  R31
	ROL  R22
	DEC  R23
	BRVC __ADDF1210

__ZERORES:
	CLR  R30
	CLR  R31
	CLR  R22
	CLR  R23
	POP  R21
	RET

__MINRES:
	SER  R30
	SER  R31
	LDI  R22,0x7F
	SER  R23
	POP  R21
	RET

__MAXRES:
	SER  R30
	SER  R31
	LDI  R22,0x7F
	LDI  R23,0x7F
	POP  R21
	RET

__MULF12:
	PUSH R21
	RCALL __UNPACK
	CPI  R23,0x80
	BREQ __ZERORES
	CPI  R25,0x80
	BREQ __ZERORES
	EOR  R0,R1
	SEC
	ADC  R23,R25
	BRVC __MULF124
	BRLT __ZERORES
__MULF125:
	TST  R0
	BRMI __MINRES
	RJMP __MAXRES
__MULF124:
	PUSH R0
	PUSH R17
	PUSH R18
	PUSH R19
	PUSH R20
	CLR  R17
	CLR  R18
	CLR  R25
	MUL  R22,R24
	MOVW R20,R0
	MUL  R24,R31
	MOV  R19,R0
	ADD  R20,R1
	ADC  R21,R25
	MUL  R22,R27
	ADD  R19,R0
	ADC  R20,R1
	ADC  R21,R25
	MUL  R24,R30
	RCALL __MULF126
	MUL  R27,R31
	RCALL __MULF126
	MUL  R22,R26
	RCALL __MULF126
	MUL  R27,R30
	RCALL __MULF127
	MUL  R26,R31
	RCALL __MULF127
	MUL  R26,R30
	ADD  R17,R1
	ADC  R18,R25
	ADC  R19,R25
	ADC  R20,R25
	ADC  R21,R25
	MOV  R30,R19
	MOV  R31,R20
	MOV  R22,R21
	MOV  R21,R18
	POP  R20
	POP  R19
	POP  R18
	POP  R17
	POP  R0
	TST  R22
	BRMI __MULF122
	LSL  R21
	ROL  R30
	ROL  R31
	ROL  R22
	RJMP __MULF123
__MULF122:
	INC  R23
	BRVS __MULF125
__MULF123:
	RCALL __ROUND_REPACK
	POP  R21
	RET

__MULF127:
	ADD  R17,R0
	ADC  R18,R1
	ADC  R19,R25
	RJMP __MULF128
__MULF126:
	ADD  R18,R0
	ADC  R19,R1
__MULF128:
	ADC  R20,R25
	ADC  R21,R25
	RET

__DIVF21:
	PUSH R21
	RCALL __UNPACK
	CPI  R23,0x80
	BRNE __DIVF210
	TST  R1
__DIVF211:
	BRPL __DIVF219
	RJMP __MINRES
__DIVF219:
	RJMP __MAXRES
__DIVF210:
	CPI  R25,0x80
	BRNE __DIVF218
__DIVF217:
	RJMP __ZERORES
__DIVF218:
	EOR  R0,R1
	SEC
	SBC  R25,R23
	BRVC __DIVF216
	BRLT __DIVF217
	TST  R0
	RJMP __DIVF211
__DIVF216:
	MOV  R23,R25
	PUSH R17
	PUSH R18
	PUSH R19
	PUSH R20
	CLR  R1
	CLR  R17
	CLR  R18
	CLR  R19
	CLR  R20
	CLR  R21
	LDI  R25,32
__DIVF212:
	CP   R26,R30
	CPC  R27,R31
	CPC  R24,R22
	CPC  R20,R17
	BRLO __DIVF213
	SUB  R26,R30
	SBC  R27,R31
	SBC  R24,R22
	SBC  R20,R17
	SEC
	RJMP __DIVF214
__DIVF213:
	CLC
__DIVF214:
	ROL  R21
	ROL  R18
	ROL  R19
	ROL  R1
	ROL  R26
	ROL  R27
	ROL  R24
	ROL  R20
	DEC  R25
	BRNE __DIVF212
	MOVW R30,R18
	MOV  R22,R1
	POP  R20
	POP  R19
	POP  R18
	POP  R17
	TST  R22
	BRMI __DIVF215
	LSL  R21
	ROL  R30
	ROL  R31
	ROL  R22
	DEC  R23
	BRVS __DIVF217
__DIVF215:
	RCALL __ROUND_REPACK
	POP  R21
	RET

__ADDW2R15:
	CLR  R0
	ADD  R26,R15
	ADC  R27,R0
	RET

__ANEGW1:
	NEG  R31
	NEG  R30
	SBCI R31,0
	RET

__ANEGD1:
	COM  R31
	COM  R22
	COM  R23
	NEG  R30
	SBCI R31,-1
	SBCI R22,-1
	SBCI R23,-1
	RET

__LSLW2:
	LSL  R30
	ROL  R31
	LSL  R30
	ROL  R31
	RET

__MULW2_4:
	LSL  R26
	ROL  R27
	LSL  R26
	ROL  R27
	RET

__CWD1:
	MOV  R22,R31
	ADD  R22,R22
	SBC  R22,R22
	MOV  R23,R22
	RET

__GETW1P:
	LD   R30,X+
	LD   R31,X
	SBIW R26,1
	RET

__GETD1P:
	LD   R30,X+
	LD   R31,X+
	LD   R22,X+
	LD   R23,X
	SBIW R26,3
	RET

__PUTDP1:
	ST   X+,R30
	ST   X+,R31
	ST   X+,R22
	ST   X,R23
	RET

__GETW1PF:
	LPM  R0,Z+
	LPM  R31,Z
	MOV  R30,R0
	RET

__PUTPARD1:
	ST   -Y,R23
	ST   -Y,R22
	ST   -Y,R31
	ST   -Y,R30
	RET

__SWAPD12:
	MOV  R1,R24
	MOV  R24,R22
	MOV  R22,R1
	MOV  R1,R25
	MOV  R25,R23
	MOV  R23,R1

__SWAPW12:
	MOV  R1,R27
	MOV  R27,R31
	MOV  R31,R1

__SWAPB12:
	MOV  R1,R26
	MOV  R26,R30
	MOV  R30,R1
	RET

__SAVELOCR6:
	ST   -Y,R21
__SAVELOCR5:
	ST   -Y,R20
__SAVELOCR4:
	ST   -Y,R19
__SAVELOCR3:
	ST   -Y,R18
__SAVELOCR2:
	ST   -Y,R17
	ST   -Y,R16
	RET

__LOADLOCR6:
	LDD  R21,Y+5
__LOADLOCR5:
	LDD  R20,Y+4
__LOADLOCR4:
	LDD  R19,Y+3
__LOADLOCR3:
	LDD  R18,Y+2
__LOADLOCR2:
	LDD  R17,Y+1
	LD   R16,Y
	RET

;END OF CODE MARKER
__END_OF_CODE:
